; Function Attrs: nounwind uwtable
define internal noundef i32 @lj_cf_ffi_typeof(ptr noundef %0) #0 {
  %2 = getelementptr inbounds nuw i8, ptr %0, i64 16
  %3 = load i64, ptr %2, align 8, !tbaa !24
  %4 = inttoptr i64 %3 to ptr
  %5 = getelementptr inbounds nuw i8, ptr %4, i64 384
  %6 = load i64, ptr %5, align 8, !tbaa !41
  %7 = inttoptr i64 %6 to ptr
  %8 = getelementptr inbounds nuw i8, ptr %7, i64 16
  store ptr %0, ptr %8, align 8, !tbaa !42
  %9 = getelementptr inbounds nuw i8, ptr %0, i64 32
  %10 = load ptr, ptr %9, align 8, !tbaa !44
  %11 = getelementptr inbounds nuw i8, ptr %10, i64 8
  %12 = tail call fastcc i32 @ffi_checkctype(ptr noundef %0, ptr noundef %7, ptr noundef nonnull %11)
  %13 = load ptr, ptr %8, align 8, !tbaa !42
  %14 = tail call ptr @lj_mem_newgco(ptr noundef %13, i64 noundef 20) #9
  %15 = getelementptr inbounds nuw i8, ptr %14, i64 9
  store i8 10, ptr %15, align 1, !tbaa !79
  %16 = getelementptr inbounds nuw i8, ptr %14, i64 10
  store i16 22, ptr %16, align 2, !tbaa !48
  %17 = getelementptr inbounds nuw i8, ptr %14, i64 16
  store i32 %12, ptr %17, align 4, !tbaa !43
  %18 = getelementptr inbounds nuw i8, ptr %0, i64 40
  %19 = load ptr, ptr %18, align 8, !tbaa !4
  %20 = getelementptr inbounds i8, ptr %19, i64 -8
  %21 = ptrtoint ptr %14 to i64
  %22 = or i64 %21, -1548112371908608
  store i64 %22, ptr %20, align 8, !tbaa !23
  %23 = load i64, ptr %2, align 8, !tbaa !24
  %24 = inttoptr i64 %23 to ptr
  %25 = getelementptr inbounds nuw i8, ptr %24, i64 16
  %26 = load i64, ptr %25, align 8, !tbaa !46
  %27 = getelementptr inbounds nuw i8, ptr %24, i64 24
  %28 = load i64, ptr %27, align 8, !tbaa !47
  %.not = icmp ult i64 %26, %28
  br i1 %.not, label %31, label %29, !prof !27

29:                                               ; preds = %1
  %30 = tail call i32 @lj_gc_step(ptr noundef nonnull %0) #9
  br label %31

31:                                               ; preds = %29, %1
  ret i32 1
}